target datalayout = "e-m:e-p270:32:32-p271:32:32-p272:64:64-i64:64-i128:128-f80:128-n8:16:32:64-S128"
target triple = "x86_64-pc-linux-gnu"

@prec_list = dso_local global ptr null, align 8
@energy_profile = internal global i32 7, align 4
@.str.3 = private unnamed_addr constant [53 x i8] c"Invalid units for statistics. Initialization failed.\00", align 1
@conv_units = internal global i64 0, align 8
@my_pagesize = internal global i32 0, align 4

; Function Attrs: nounwind uwtable
define dso_local void @jag_common_init(i64 noundef %0) #0 {
  %2 = alloca i64, align 8
  %3 = alloca i32, align 4
  store i64 %0, ptr %2, align 8
  call void @llvm.lifetime.start.p0(i64 4, ptr %3) #10
  %4 = call ptr @slurm_list_create(ptr noundef @destroy_jag_prec)
  store ptr %4, ptr @prec_list, align 8
  %5 = call i32 @acct_gather_profile_g_get(i32 noundef 2, ptr noundef %3)
  %6 = load i32, ptr %3, align 4
  %7 = zext i32 %6 to i64
  %8 = and i64 %7, 2
  %9 = icmp ne i64 %8, 0
  br i1 %9, label %10, label %11

10:                                               ; preds = %1
  store i32 6, ptr @energy_profile, align 4
  br label %11

11:                                               ; preds = %10, %1
  %12 = load i64, ptr %2, align 8
  %13 = icmp slt i64 %12, 1
  br i1 %13, label %14, label %15

14:                                               ; preds = %11
  call void (ptr, ...) @slurm_fatal(ptr noundef @.str.3) #11
  unreachable

15:                                               ; preds = %11
  %16 = load i64, ptr %2, align 8
  store i64 %16, ptr @conv_units, align 8
  %17 = call i32 @getpagesize() #12
  store i32 %17, ptr @my_pagesize, align 4
  call void @llvm.lifetime.end.p0(i64 4, ptr %3) #10
  ret void
}