; Function Attrs: nounwind uwtable
define dso_local void @jag_common_init(i64 noundef %0) local_unnamed_addr #0 {
  %2 = alloca i32, align 4
  call void @llvm.lifetime.start.p0(i64 4, ptr nonnull %2) #17
  %3 = tail call ptr @slurm_list_create(ptr noundef nonnull @destroy_jag_prec) #17
  store ptr %3, ptr @prec_list, align 8
  %4 = call i32 @acct_gather_profile_g_get(i32 noundef 2, ptr noundef nonnull %2) #17
  %5 = load i32, ptr %2, align 4
  %6 = and i32 %5, 2
  %.not = icmp eq i32 %6, 0
  br i1 %.not, label %8, label %7

7:                                                ; preds = %1
  store i1 true, ptr @energy_profile, align 4
  br label %8

8:                                                ; preds = %7, %1
  %9 = icmp slt i64 %0, 1
  br i1 %9, label %10, label %11

10:                                               ; preds = %8
  call void (ptr, ...) @slurm_fatal(ptr noundef nonnull @.str.3) #18
  unreachable

11:                                               ; preds = %8
  store i64 %0, ptr @conv_units, align 8
  %12 = tail call i32 @getpagesize() #19
  store i32 %12, ptr @my_pagesize, align 4
  call void @llvm.lifetime.end.p0(i64 4, ptr nonnull %2) #17
  ret void
}